target datalayout = "e-m:e-p270:32:32-p271:32:32-p272:64:64-i64:64-i128:128-f80:128-n8:16:32:64-S128"
target triple = "x86_64-pc-linux-gnu"

%"class.icu_77::ICUDataTable" = type { ptr, %"class.icu_77::Locale" }
%"class.icu_77::Locale" = type <{ %"class.icu_77::UObject", [12 x i8], [6 x i8], [4 x i8], [2 x i8], i32, [4 x i8], ptr, [157 x i8], [3 x i8], ptr, i8, [7 x i8] }>
%"class.icu_77::UObject" = type { ptr }
%"class.icu_77::UnicodeString" = type { %"class.icu_77::Replaceable", %"union.icu_77::UnicodeString::StackBufferOrFields" }
%"class.icu_77::Replaceable" = type { %"class.icu_77::UObject" }
%"union.icu_77::UnicodeString::StackBufferOrFields" = type { %struct.anon.0, [32 x i8] }
%struct.anon.0 = type { i16, i32, i32, ptr }
%"class.icu_77::LocaleDisplayNamesImpl" = type <{ %"class.icu_77::LocaleDisplayNames", %"class.icu_77::Locale", i32, [4 x i8], %"class.icu_77::ICUDataTable", %"class.icu_77::ICUDataTable", %"class.icu_77::SimpleFormatter", %"class.icu_77::SimpleFormatter", %"class.icu_77::SimpleFormatter", i32, [4 x i8], ptr, %"class.icu_77::UnicodeString", %"class.icu_77::UnicodeString", %"class.icu_77::UnicodeString", %"class.icu_77::UnicodeString", i32, i32, [6 x i8], [2 x i8] }>
%"class.icu_77::LocaleDisplayNames" = type { %"class.icu_77::UObject" }
%"class.icu_77::SimpleFormatter" = type { [8 x i8], %"class.icu_77::UnicodeString" }
%struct.anon = type { i16, [27 x i16] }

@.str = private unnamed_addr constant [14 x i8] c"icudt77l-lang\00", align 1
@.str.1 = private unnamed_addr constant [16 x i8] c"icudt77l-region\00", align 1
@_ZTVN6icu_777UObjectE = available_externally unnamed_addr constant { [5 x ptr] } { [5 x ptr] [ptr null, ptr @_ZTIN6icu_777UObjectE, ptr @_ZN6icu_777UObjectD1Ev, ptr @_ZN6icu_777UObjectD0Ev, ptr @_ZNK6icu_777UObject17getDynamicClassIDEv] }, align 8
@_ZN6icu_7712ICUDataTableC1EPKcRKNS_6LocaleE = unnamed_addr alias void (ptr, ptr, ptr), ptr @_ZN6icu_7712ICUDataTableC2EPKcRKNS_6LocaleE

; Function Attrs: inlinehint mustprogress nounwind uwtable
define linkonce_odr void @_ZN6icu_7711ReplaceableC2Ev(ptr noundef nonnull align 8 dereferenceable(8) %0) unnamed_addr #2 comdat align 2 {
  %2 = alloca ptr, align 8
  store ptr %0, ptr %2, align 8, !tbaa !122
  %3 = load ptr, ptr %2, align 8
  call void @_ZN6icu_777UObjectC2Ev(ptr noundef nonnull align 8 dereferenceable(8) %3) #13
  store ptr getelementptr inbounds inrange(-16, 88) ({ [13 x ptr] }, ptr @_ZTVN6icu_7711ReplaceableE, i32 0, i32 0, i32 2), ptr %3, align 8, !tbaa !42
  ret void
}

; Function Attrs: inlinehint mustprogress nounwind uwtable
define linkonce_odr void @_ZN6icu_777UObjectC2Ev(ptr noundef nonnull align 8 dereferenceable(8) %0) unnamed_addr #2 comdat align 2 {
  %2 = alloca ptr, align 8
  store ptr %0, ptr %2, align 8, !tbaa !120
  %3 = load ptr, ptr %2, align 8
  store ptr getelementptr inbounds inrange(-16, 24) ({ [5 x ptr] }, ptr @_ZTVN6icu_777UObjectE, i32 0, i32 0, i32 2), ptr %3, align 8, !tbaa !42
  ret void
}

; Function Attrs: mustprogress nounwind uwtable
define void @_ZN6icu_7718LocaleDisplayNamesD2Ev(ptr noundef nonnull align 8 dereferenceable(8) %0) unnamed_addr #0 align 2 {
  %2 = alloca ptr, align 8
  store ptr %0, ptr %2, align 8, !tbaa !36
  %3 = load ptr, ptr %2, align 8
  call void @_ZN6icu_777UObjectD2Ev(ptr noundef nonnull align 8 dereferenceable(8) %3) #13
  ret void
}

; Function Attrs: mustprogress nounwind uwtable
define linkonce_odr void @_ZN6icu_7712ICUDataTableD2Ev(ptr noundef nonnull align 8 dereferenceable(232) %0) unnamed_addr #0 comdat align 2 {
  %2 = alloca ptr, align 8
  store ptr %0, ptr %2, align 8, !tbaa !23
  %3 = load ptr, ptr %2, align 8
  %4 = getelementptr inbounds nuw %"class.icu_77::ICUDataTable", ptr %3, i32 0, i32 1
  call void @_ZN6icu_776LocaleD1Ev(ptr noundef nonnull align 8 dereferenceable(217) %4) #13
  ret void
}

; Function Attrs: inlinehint mustprogress uwtable
define linkonce_odr void @_ZN6icu_7713UnicodeStringC2Ev(ptr noundef nonnull align 8 dereferenceable(64) %0) unnamed_addr #3 comdat align 2 {
  %2 = alloca ptr, align 8
  store ptr %0, ptr %2, align 8, !tbaa !31
  %3 = load ptr, ptr %2, align 8
  call void @_ZN6icu_7711ReplaceableC2Ev(ptr noundef nonnull align 8 dereferenceable(8) %3)
  store ptr getelementptr inbounds inrange(-16, 88) ({ [13 x ptr] }, ptr @_ZTVN6icu_7713UnicodeStringE, i32 0, i32 0, i32 2), ptr %3, align 8, !tbaa !42
  %4 = getelementptr inbounds nuw %"class.icu_77::UnicodeString", ptr %3, i32 0, i32 1
  %5 = getelementptr inbounds nuw %struct.anon, ptr %4, i32 0, i32 0
  store i16 2, ptr %5, align 8, !tbaa !58
  ret void
}

; Function Attrs: mustprogress uwtable
define linkonce_odr void @_ZN6icu_7715SimpleFormatterC2Ev(ptr noundef nonnull align 8 dereferenceable(72) %0) unnamed_addr #1 comdat align 2 {
  %2 = alloca ptr, align 8
  store ptr %0, ptr %2, align 8, !tbaa !56
  %3 = load ptr, ptr %2, align 8
  %4 = getelementptr inbounds nuw %"class.icu_77::SimpleFormatter", ptr %3, i32 0, i32 1
  call void @_ZN6icu_7713UnicodeStringC1EDs(ptr noundef nonnull align 8 dereferenceable(64) %4, i16 noundef zeroext 0)
  ret void
}

; Function Attrs: inlinehint mustprogress nounwind uwtable
define linkonce_odr void @_ZN6icu_7718LocaleDisplayNamesC2Ev(ptr noundef nonnull align 8 dereferenceable(8) %0) unnamed_addr #2 comdat align 2 {
  %2 = alloca ptr, align 8
  store ptr %0, ptr %2, align 8, !tbaa !36
  %3 = load ptr, ptr %2, align 8
  call void @_ZN6icu_777UObjectC2Ev(ptr noundef nonnull align 8 dereferenceable(8) %3) #13
  store ptr getelementptr inbounds inrange(-16, 120) ({ [17 x ptr] }, ptr @_ZTVN6icu_7718LocaleDisplayNamesE, i32 0, i32 0, i32 2), ptr %3, align 8, !tbaa !42
  ret void
}

; Function Attrs: mustprogress uwtable
define void @_ZN6icu_7722LocaleDisplayNamesImplC2ERKNS_6LocaleEP15UDisplayContexti(ptr noundef nonnull align 8 dereferenceable(1206) %0, ptr noundef nonnull align 8 dereferenceable(217) %1, ptr noundef %2, i32 noundef %3) unnamed_addr #1 align 2 personality ptr @__gxx_personality_v0 {
  %5 = alloca ptr, align 8
  %6 = alloca ptr, align 8
  %7 = alloca ptr, align 8
  %8 = alloca i32, align 4
  %9 = alloca ptr, align 8
  %10 = alloca i32, align 4
  %11 = alloca i32, align 4
  %12 = alloca i32, align 4
  store ptr %0, ptr %5, align 8, !tbaa !38
  store ptr %1, ptr %6, align 8, !tbaa !25
  store ptr %2, ptr %7, align 8, !tbaa !22
  store i32 %3, ptr %8, align 4, !tbaa !14
  %13 = load ptr, ptr %5, align 8
  call void @_ZN6icu_7718LocaleDisplayNamesC2Ev(ptr noundef nonnull align 8 dereferenceable(8) %13) #13
  store ptr getelementptr inbounds inrange(-16, 120) ({ [17 x ptr] }, ptr @_ZTVN6icu_7722LocaleDisplayNamesImplE, i32 0, i32 0, i32 2), ptr %13, align 8, !tbaa !42
  %14 = getelementptr inbounds nuw %"class.icu_77::LocaleDisplayNamesImpl", ptr %13, i32 0, i32 1
  invoke void @_ZN6icu_776LocaleC1Ev(ptr noundef nonnull align 8 dereferenceable(217) %14)
          to label %15 unwind label %52

15:                                               ; preds = %4
  %16 = getelementptr inbounds nuw %"class.icu_77::LocaleDisplayNamesImpl", ptr %13, i32 0, i32 2
  store i32 0, ptr %16, align 8, !tbaa !44
  %17 = getelementptr inbounds nuw %"class.icu_77::LocaleDisplayNamesImpl", ptr %13, i32 0, i32 4
  %18 = load ptr, ptr %6, align 8, !tbaa !25
  invoke void @_ZN6icu_7712ICUDataTableC1EPKcRKNS_6LocaleE(ptr noundef nonnull align 8 dereferenceable(232) %17, ptr noundef @.str, ptr noundef nonnull align 8 dereferenceable(217) %18)
          to label %19 unwind label %56

19:                                               ; preds = %15
  %20 = getelementptr inbounds nuw %"class.icu_77::LocaleDisplayNamesImpl", ptr %13, i32 0, i32 5
  %21 = load ptr, ptr %6, align 8, !tbaa !25
  invoke void @_ZN6icu_7712ICUDataTableC1EPKcRKNS_6LocaleE(ptr noundef nonnull align 8 dereferenceable(232) %20, ptr noundef @.str.1, ptr noundef nonnull align 8 dereferenceable(217) %21)
          to label %22 unwind label %60

22:                                               ; preds = %19
  %23 = getelementptr inbounds nuw %"class.icu_77::LocaleDisplayNamesImpl", ptr %13, i32 0, i32 6
  invoke void @_ZN6icu_7715SimpleFormatterC2Ev(ptr noundef nonnull align 8 dereferenceable(72) %23)
          to label %24 unwind label %64

24:                                               ; preds = %22
  %25 = getelementptr inbounds nuw %"class.icu_77::LocaleDisplayNamesImpl", ptr %13, i32 0, i32 7
  invoke void @_ZN6icu_7715SimpleFormatterC2Ev(ptr noundef nonnull align 8 dereferenceable(72) %25)
          to label %26 unwind label %68

26:                                               ; preds = %24
  %27 = getelementptr inbounds nuw %"class.icu_77::LocaleDisplayNamesImpl", ptr %13, i32 0, i32 8
  invoke void @_ZN6icu_7715SimpleFormatterC2Ev(ptr noundef nonnull align 8 dereferenceable(72) %27)
          to label %28 unwind label %72

28:                                               ; preds = %26
  %29 = getelementptr inbounds nuw %"class.icu_77::LocaleDisplayNamesImpl", ptr %13, i32 0, i32 9
  store i32 256, ptr %29, align 8, !tbaa !52
  %30 = getelementptr inbounds nuw %"class.icu_77::LocaleDisplayNamesImpl", ptr %13, i32 0, i32 11
  store ptr null, ptr %30, align 8, !tbaa !53
  %31 = getelementptr inbounds nuw %"class.icu_77::LocaleDisplayNamesImpl", ptr %13, i32 0, i32 12
  invoke void @_ZN6icu_7713UnicodeStringC2Ev(ptr noundef nonnull align 8 dereferenceable(64) %31)
          to label %32 unwind label %76

32:                                               ; preds = %28
  %33 = getelementptr inbounds nuw %"class.icu_77::LocaleDisplayNamesImpl", ptr %13, i32 0, i32 13
  invoke void @_ZN6icu_7713UnicodeStringC2Ev(ptr noundef nonnull align 8 dereferenceable(64) %33)
          to label %34 unwind label %80

34:                                               ; preds = %32
  %35 = getelementptr inbounds nuw %"class.icu_77::LocaleDisplayNamesImpl", ptr %13, i32 0, i32 14
  invoke void @_ZN6icu_7713UnicodeStringC2Ev(ptr noundef nonnull align 8 dereferenceable(64) %35)
          to label %36 unwind label %84

36:                                               ; preds = %34
  %37 = getelementptr inbounds nuw %"class.icu_77::LocaleDisplayNamesImpl", ptr %13, i32 0, i32 15
  invoke void @_ZN6icu_7713UnicodeStringC2Ev(ptr noundef nonnull align 8 dereferenceable(64) %37)
          to label %38 unwind label %88

38:                                               ; preds = %36
  %39 = getelementptr inbounds nuw %"class.icu_77::LocaleDisplayNamesImpl", ptr %13, i32 0, i32 16
  store i32 512, ptr %39, align 8, !tbaa !54
  %40 = getelementptr inbounds nuw %"class.icu_77::LocaleDisplayNamesImpl", ptr %13, i32 0, i32 17
  store i32 768, ptr %40, align 4, !tbaa !55
  br label %41

41:                                               ; preds = %105, %38
  %42 = load i32, ptr %8, align 4, !tbaa !14
  %43 = add nsw i32 %42, -1
  store i32 %43, ptr %8, align 4, !tbaa !14
  %44 = icmp sgt i32 %42, 0
  br i1 %44, label %45, label %106

45:                                               ; preds = %41
  call void @llvm.lifetime.start.p0(i64 4, ptr %11) #13
  %46 = load ptr, ptr %7, align 8, !tbaa !22
  %47 = getelementptr inbounds nuw i32, ptr %46, i32 1
  store ptr %47, ptr %7, align 8, !tbaa !22
  %48 = load i32, ptr %46, align 4, !tbaa !66
  store i32 %48, ptr %11, align 4, !tbaa !66
  call void @llvm.lifetime.start.p0(i64 4, ptr %12) #13
  %49 = load i32, ptr %11, align 4, !tbaa !66
  %50 = lshr i32 %49, 8
  store i32 %50, ptr %12, align 4, !tbaa !67
  %51 = load i32, ptr %12, align 4, !tbaa !67
  switch i32 %51, label %104 [
    i32 0, label %92
    i32 1, label %95
    i32 2, label %98
    i32 3, label %101
  ]

52:                                               ; preds = %4
  %53 = landingpad { ptr, i32 }
          cleanup
  %54 = extractvalue { ptr, i32 } %53, 0
  store ptr %54, ptr %9, align 8
  %55 = extractvalue { ptr, i32 } %53, 1
  store i32 %55, ptr %10, align 4
  br label %121

56:                                               ; preds = %15
  %57 = landingpad { ptr, i32 }
          cleanup
  %58 = extractvalue { ptr, i32 } %57, 0
  store ptr %58, ptr %9, align 8
  %59 = extractvalue { ptr, i32 } %57, 1
  store i32 %59, ptr %10, align 4
  br label %120

60:                                               ; preds = %19
  %61 = landingpad { ptr, i32 }
          cleanup
  %62 = extractvalue { ptr, i32 } %61, 0
  store ptr %62, ptr %9, align 8
  %63 = extractvalue { ptr, i32 } %61, 1
  store i32 %63, ptr %10, align 4
  br label %119

64:                                               ; preds = %22
  %65 = landingpad { ptr, i32 }
          cleanup
  %66 = extractvalue { ptr, i32 } %65, 0
  store ptr %66, ptr %9, align 8
  %67 = extractvalue { ptr, i32 } %65, 1
  store i32 %67, ptr %10, align 4
  br label %118

68:                                               ; preds = %24
  %69 = landingpad { ptr, i32 }
          cleanup
  %70 = extractvalue { ptr, i32 } %69, 0
  store ptr %70, ptr %9, align 8
  %71 = extractvalue { ptr, i32 } %69, 1
  store i32 %71, ptr %10, align 4
  br label %117

72:                                               ; preds = %26
  %73 = landingpad { ptr, i32 }
          cleanup
  %74 = extractvalue { ptr, i32 } %73, 0
  store ptr %74, ptr %9, align 8
  %75 = extractvalue { ptr, i32 } %73, 1
  store i32 %75, ptr %10, align 4
  br label %116

76:                                               ; preds = %28
  %77 = landingpad { ptr, i32 }
          cleanup
  %78 = extractvalue { ptr, i32 } %77, 0
  store ptr %78, ptr %9, align 8
  %79 = extractvalue { ptr, i32 } %77, 1
  store i32 %79, ptr %10, align 4
  br label %115

80:                                               ; preds = %32
  %81 = landingpad { ptr, i32 }
          cleanup
  %82 = extractvalue { ptr, i32 } %81, 0
  store ptr %82, ptr %9, align 8
  %83 = extractvalue { ptr, i32 } %81, 1
  store i32 %83, ptr %10, align 4
  br label %114

84:                                               ; preds = %34
  %85 = landingpad { ptr, i32 }
          cleanup
  %86 = extractvalue { ptr, i32 } %85, 0
  store ptr %86, ptr %9, align 8
  %87 = extractvalue { ptr, i32 } %85, 1
  store i32 %87, ptr %10, align 4
  br label %113

88:                                               ; preds = %36
  %89 = landingpad { ptr, i32 }
          cleanup
  %90 = extractvalue { ptr, i32 } %89, 0
  store ptr %90, ptr %9, align 8
  %91 = extractvalue { ptr, i32 } %89, 1
  store i32 %91, ptr %10, align 4
  br label %112

92:                                               ; preds = %45
  %93 = load i32, ptr %11, align 4, !tbaa !66
  %94 = getelementptr inbounds nuw %"class.icu_77::LocaleDisplayNamesImpl", ptr %13, i32 0, i32 2
  store i32 %93, ptr %94, align 8, !tbaa !44
  br label %105

95:                                               ; preds = %45
  %96 = load i32, ptr %11, align 4, !tbaa !66
  %97 = getelementptr inbounds nuw %"class.icu_77::LocaleDisplayNamesImpl", ptr %13, i32 0, i32 9
  store i32 %96, ptr %97, align 8, !tbaa !52
  br label %105

98:                                               ; preds = %45
  %99 = load i32, ptr %11, align 4, !tbaa !66
  %100 = getelementptr inbounds nuw %"class.icu_77::LocaleDisplayNamesImpl", ptr %13, i32 0, i32 16
  store i32 %99, ptr %100, align 8, !tbaa !54
  br label %105

101:                                              ; preds = %45
  %102 = load i32, ptr %11, align 4, !tbaa !66
  %103 = getelementptr inbounds nuw %"class.icu_77::LocaleDisplayNamesImpl", ptr %13, i32 0, i32 17
  store i32 %102, ptr %103, align 4, !tbaa !55
  br label %105

104:                                              ; preds = %45
  br label %105

105:                                              ; preds = %104, %101, %98, %95, %92
  call void @llvm.lifetime.end.p0(i64 4, ptr %12) #13
  call void @llvm.lifetime.end.p0(i64 4, ptr %11) #13
  br label %41, !llvm.loop !69

106:                                              ; preds = %41
  invoke void @_ZN6icu_7722LocaleDisplayNamesImpl10initializeEv(ptr noundef nonnull align 8 dereferenceable(1206) %13)
          to label %107 unwind label %108

107:                                              ; preds = %106
  ret void

108:                                              ; preds = %106
  %109 = landingpad { ptr, i32 }
          cleanup
  %110 = extractvalue { ptr, i32 } %109, 0
  store ptr %110, ptr %9, align 8
  %111 = extractvalue { ptr, i32 } %109, 1
  store i32 %111, ptr %10, align 4
  call void @_ZN6icu_7713UnicodeStringD1Ev(ptr noundef nonnull align 8 dereferenceable(64) %37) #13
  br label %112

112:                                              ; preds = %108, %88
  call void @_ZN6icu_7713UnicodeStringD1Ev(ptr noundef nonnull align 8 dereferenceable(64) %35) #13
  br label %113

113:                                              ; preds = %112, %84
  call void @_ZN6icu_7713UnicodeStringD1Ev(ptr noundef nonnull align 8 dereferenceable(64) %33) #13
  br label %114

114:                                              ; preds = %113, %80
  call void @_ZN6icu_7713UnicodeStringD1Ev(ptr noundef nonnull align 8 dereferenceable(64) %31) #13
  br label %115

115:                                              ; preds = %114, %76
  call void @_ZN6icu_7715SimpleFormatterD1Ev(ptr noundef nonnull align 8 dereferenceable(72) %27) #13
  br label %116

116:                                              ; preds = %115, %72
  call void @_ZN6icu_7715SimpleFormatterD1Ev(ptr noundef nonnull align 8 dereferenceable(72) %25) #13
  br label %117

117:                                              ; preds = %116, %68
  call void @_ZN6icu_7715SimpleFormatterD1Ev(ptr noundef nonnull align 8 dereferenceable(72) %23) #13
  br label %118

118:                                              ; preds = %117, %64
  call void @_ZN6icu_7712ICUDataTableD2Ev(ptr noundef nonnull align 8 dereferenceable(232) %20) #13
  br label %119

119:                                              ; preds = %118, %60
  call void @_ZN6icu_7712ICUDataTableD2Ev(ptr noundef nonnull align 8 dereferenceable(232) %17) #13
  br label %120

120:                                              ; preds = %119, %56
  call void @_ZN6icu_776LocaleD1Ev(ptr noundef nonnull align 8 dereferenceable(217) %14) #13
  br label %121

121:                                              ; preds = %120, %52
  call void @_ZN6icu_7718LocaleDisplayNamesD2Ev(ptr noundef nonnull align 8 dereferenceable(8) %13) #13
  br label %122

122:                                              ; preds = %121
  %123 = load ptr, ptr %9, align 8
  %124 = load i32, ptr %10, align 4
  %125 = insertvalue { ptr, i32 } poison, ptr %123, 0
  %126 = insertvalue { ptr, i32 } %125, i32 %124, 1
  resume { ptr, i32 } %126
}