; Function Attrs: mustprogress uwtable
define void @_ZN6icu_7722LocaleDisplayNamesImplC2ERKNS_6LocaleEP15UDisplayContexti(ptr noundef nonnull align 8 dereferenceable(1206) initializes((0, 8)) %0, ptr noundef nonnull align 8 dereferenceable(217) %1, ptr noundef readonly captures(none) %2, i32 noundef %3) unnamed_addr #1 align 2 personality ptr @__gxx_personality_v0 {
  store ptr getelementptr inbounds nuw inrange(-16, 120) (i8, ptr @_ZTVN6icu_7722LocaleDisplayNamesImplE, i64 16), ptr %0, align 8, !tbaa !21
  %5 = getelementptr inbounds nuw i8, ptr %0, i64 8
  invoke void @_ZN6icu_776LocaleC1Ev(ptr noundef nonnull align 8 dereferenceable(217) %5)
          to label %6 unwind label %36

6:                                                ; preds = %4
  %7 = getelementptr inbounds nuw i8, ptr %0, i64 232
  store i32 0, ptr %7, align 8, !tbaa !23
  %8 = getelementptr inbounds nuw i8, ptr %0, i64 240
  invoke void @_ZN6icu_7712ICUDataTableC1EPKcRKNS_6LocaleE(ptr noundef nonnull align 8 dereferenceable(232) %8, ptr noundef nonnull @.str, ptr noundef nonnull align 8 dereferenceable(217) %1)
          to label %9 unwind label %38

9:                                                ; preds = %6
  %10 = getelementptr inbounds nuw i8, ptr %0, i64 472
  invoke void @_ZN6icu_7712ICUDataTableC1EPKcRKNS_6LocaleE(ptr noundef nonnull align 8 dereferenceable(232) %10, ptr noundef nonnull @.str.1, ptr noundef nonnull align 8 dereferenceable(217) %1)
          to label %11 unwind label %40

11:                                               ; preds = %9
  %12 = getelementptr inbounds nuw i8, ptr %0, i64 704
  %13 = getelementptr inbounds nuw i8, ptr %0, i64 712
  invoke void @_ZN6icu_7713UnicodeStringC1EDs(ptr noundef nonnull align 8 dereferenceable(64) %13, i16 noundef zeroext 0)
          to label %_ZN6icu_7715SimpleFormatterC2Ev.exit unwind label %42

_ZN6icu_7715SimpleFormatterC2Ev.exit:             ; preds = %11
  %14 = getelementptr inbounds nuw i8, ptr %0, i64 776
  %15 = getelementptr inbounds nuw i8, ptr %0, i64 784
  invoke void @_ZN6icu_7713UnicodeStringC1EDs(ptr noundef nonnull align 8 dereferenceable(64) %15, i16 noundef zeroext 0)
          to label %_ZN6icu_7715SimpleFormatterC2Ev.exit34 unwind label %44

_ZN6icu_7715SimpleFormatterC2Ev.exit34:           ; preds = %_ZN6icu_7715SimpleFormatterC2Ev.exit
  %16 = getelementptr inbounds nuw i8, ptr %0, i64 848
  %17 = getelementptr inbounds nuw i8, ptr %0, i64 856
  invoke void @_ZN6icu_7713UnicodeStringC1EDs(ptr noundef nonnull align 8 dereferenceable(64) %17, i16 noundef zeroext 0)
          to label %18 unwind label %46

18:                                               ; preds = %_ZN6icu_7715SimpleFormatterC2Ev.exit34
  %19 = getelementptr inbounds nuw i8, ptr %0, i64 920
  store i32 256, ptr %19, align 8, !tbaa !32
  %20 = getelementptr inbounds nuw i8, ptr %0, i64 928
  store ptr null, ptr %20, align 8, !tbaa !33
  %21 = getelementptr inbounds nuw i8, ptr %0, i64 936
  store ptr getelementptr inbounds nuw inrange(-16, 88) (i8, ptr @_ZTVN6icu_7713UnicodeStringE, i64 16), ptr %21, align 8, !tbaa !21
  %22 = getelementptr inbounds nuw i8, ptr %0, i64 944
  store i16 2, ptr %22, align 8, !tbaa !20
  %23 = getelementptr inbounds nuw i8, ptr %0, i64 1000
  store ptr getelementptr inbounds nuw inrange(-16, 88) (i8, ptr @_ZTVN6icu_7713UnicodeStringE, i64 16), ptr %23, align 8, !tbaa !21
  %24 = getelementptr inbounds nuw i8, ptr %0, i64 1008
  store i16 2, ptr %24, align 8, !tbaa !20
  %25 = getelementptr inbounds nuw i8, ptr %0, i64 1064
  store ptr getelementptr inbounds nuw inrange(-16, 88) (i8, ptr @_ZTVN6icu_7713UnicodeStringE, i64 16), ptr %25, align 8, !tbaa !21
  %26 = getelementptr inbounds nuw i8, ptr %0, i64 1072
  store i16 2, ptr %26, align 8, !tbaa !20
  %27 = getelementptr inbounds nuw i8, ptr %0, i64 1128
  store ptr getelementptr inbounds nuw inrange(-16, 88) (i8, ptr @_ZTVN6icu_7713UnicodeStringE, i64 16), ptr %27, align 8, !tbaa !21
  %28 = getelementptr inbounds nuw i8, ptr %0, i64 1136
  store i16 2, ptr %28, align 8, !tbaa !20
  %29 = getelementptr inbounds nuw i8, ptr %0, i64 1192
  store i32 512, ptr %29, align 8, !tbaa !34
  %30 = getelementptr inbounds nuw i8, ptr %0, i64 1196
  store i32 768, ptr %30, align 4, !tbaa !35
  %31 = icmp sgt i32 %3, 0
  br i1 %31, label %.lr.ph, label %._crit_edge

.lr.ph:                                           ; preds = %18, %52
  %.in = phi i32 [ %32, %52 ], [ %3, %18 ]
  %.036 = phi ptr [ %33, %52 ], [ %2, %18 ]
  %32 = add nsw i32 %.in, -1
  %33 = getelementptr inbounds nuw i8, ptr %.036, i64 4
  %34 = load i32, ptr %.036, align 4, !tbaa !49
  %35 = lshr i32 %34, 8
  switch i32 %35, label %52 [
    i32 0, label %48
    i32 1, label %49
    i32 2, label %50
    i32 3, label %51
  ]

36:                                               ; preds = %4
  %37 = landingpad { ptr, i32 }
          cleanup
  br label %64

38:                                               ; preds = %6
  %39 = landingpad { ptr, i32 }
          cleanup
  br label %63

40:                                               ; preds = %9
  %41 = landingpad { ptr, i32 }
          cleanup
  br label %61

42:                                               ; preds = %11
  %43 = landingpad { ptr, i32 }
          cleanup
  br label %59

44:                                               ; preds = %_ZN6icu_7715SimpleFormatterC2Ev.exit
  %45 = landingpad { ptr, i32 }
          cleanup
  br label %58

46:                                               ; preds = %_ZN6icu_7715SimpleFormatterC2Ev.exit34
  %47 = landingpad { ptr, i32 }
          cleanup
  br label %57

48:                                               ; preds = %.lr.ph
  store i32 %34, ptr %7, align 8, !tbaa !23
  br label %52

49:                                               ; preds = %.lr.ph
  store i32 %34, ptr %19, align 8, !tbaa !32
  br label %52

50:                                               ; preds = %.lr.ph
  store i32 %34, ptr %29, align 8, !tbaa !34
  br label %52

51:                                               ; preds = %.lr.ph
  store i32 %34, ptr %30, align 4, !tbaa !35
  br label %52

52:                                               ; preds = %.lr.ph, %51, %50, %49, %48
  %53 = icmp samesign ugt i32 %.in, 1
  br i1 %53, label %.lr.ph, label %._crit_edge, !llvm.loop !50

._crit_edge:                                      ; preds = %52, %18
  invoke void @_ZN6icu_7722LocaleDisplayNamesImpl10initializeEv(ptr noundef nonnull align 8 dereferenceable(1206) %0)
          to label %54 unwind label %55

54:                                               ; preds = %._crit_edge
  ret void

55:                                               ; preds = %._crit_edge
  %56 = landingpad { ptr, i32 }
          cleanup
  tail call void @_ZN6icu_7713UnicodeStringD1Ev(ptr noundef nonnull align 8 dereferenceable(64) %27) #19
  tail call void @_ZN6icu_7713UnicodeStringD1Ev(ptr noundef nonnull align 8 dereferenceable(64) %25) #19
  tail call void @_ZN6icu_7713UnicodeStringD1Ev(ptr noundef nonnull align 8 dereferenceable(64) %23) #19
  tail call void @_ZN6icu_7713UnicodeStringD1Ev(ptr noundef nonnull align 8 dereferenceable(64) %21) #19
  tail call void @_ZN6icu_7715SimpleFormatterD1Ev(ptr noundef nonnull align 8 dereferenceable(72) %16) #19
  br label %57

57:                                               ; preds = %55, %46
  %.pn.pn.pn.pn.pn = phi { ptr, i32 } [ %56, %55 ], [ %47, %46 ]
  tail call void @_ZN6icu_7715SimpleFormatterD1Ev(ptr noundef nonnull align 8 dereferenceable(72) %14) #19
  br label %58

58:                                               ; preds = %57, %44
  %.pn.pn.pn.pn.pn.pn = phi { ptr, i32 } [ %.pn.pn.pn.pn.pn, %57 ], [ %45, %44 ]
  tail call void @_ZN6icu_7715SimpleFormatterD1Ev(ptr noundef nonnull align 8 dereferenceable(72) %12) #19
  br label %59

59:                                               ; preds = %58, %42
  %.pn.pn.pn.pn.pn.pn.pn = phi { ptr, i32 } [ %.pn.pn.pn.pn.pn.pn, %58 ], [ %43, %42 ]
  %60 = getelementptr inbounds nuw i8, ptr %0, i64 480
  tail call void @_ZN6icu_776LocaleD1Ev(ptr noundef nonnull align 8 dereferenceable(217) %60) #19
  br label %61

61:                                               ; preds = %59, %40
  %.pn.pn.pn.pn.pn.pn.pn.pn = phi { ptr, i32 } [ %.pn.pn.pn.pn.pn.pn.pn, %59 ], [ %41, %40 ]
  %62 = getelementptr inbounds nuw i8, ptr %0, i64 248
  tail call void @_ZN6icu_776LocaleD1Ev(ptr noundef nonnull align 8 dereferenceable(217) %62) #19
  br label %63

63:                                               ; preds = %61, %38
  %.pn.pn.pn.pn.pn.pn.pn.pn.pn = phi { ptr, i32 } [ %.pn.pn.pn.pn.pn.pn.pn.pn, %61 ], [ %39, %38 ]
  tail call void @_ZN6icu_776LocaleD1Ev(ptr noundef nonnull align 8 dereferenceable(217) %5) #19
  br label %64

64:                                               ; preds = %63, %36
  %.pn.pn.pn.pn.pn.pn.pn.pn.pn.pn = phi { ptr, i32 } [ %.pn.pn.pn.pn.pn.pn.pn.pn.pn, %63 ], [ %37, %36 ]
  tail call void @_ZN6icu_777UObjectD2Ev(ptr noundef nonnull align 8 dereferenceable(8) %0) #19
  resume { ptr, i32 } %.pn.pn.pn.pn.pn.pn.pn.pn.pn.pn
}